target datalayout = "e-m:e-p270:32:32-p271:32:32-p272:64:64-i64:64-i128:128-f80:128-n8:16:32:64-S128"
target triple = "x86_64-pc-linux-gnu"

%struct.pointf_s = type { double, double }

; Function Attrs: nounwind uwtable
define internal { double, double } @arrow_type_box(ptr noundef %0, double %1, double %2, double %3, double %4, double noundef %5, double noundef %6, i32 noundef %7) #0 {
  %9 = alloca %struct.pointf_s, align 8
  %10 = alloca %struct.pointf_s, align 8
  %11 = alloca %struct.pointf_s, align 8
  %12 = alloca ptr, align 8
  %13 = alloca double, align 8
  %14 = alloca double, align 8
  %15 = alloca i32, align 4
  %16 = alloca %struct.pointf_s, align 8
  %17 = alloca %struct.pointf_s, align 8
  %18 = alloca [4 x %struct.pointf_s], align 16
  %19 = alloca %struct.pointf_s, align 8
  %20 = alloca %struct.pointf_s, align 8
  %21 = alloca double, align 8
  %22 = alloca double, align 8
  %23 = alloca %struct.pointf_s, align 8
  %24 = getelementptr inbounds nuw { double, double }, ptr %10, i32 0, i32 0
  store double %1, ptr %24, align 8
  %25 = getelementptr inbounds nuw { double, double }, ptr %10, i32 0, i32 1
  store double %2, ptr %25, align 8
  %26 = getelementptr inbounds nuw { double, double }, ptr %11, i32 0, i32 0
  store double %3, ptr %26, align 8
  %27 = getelementptr inbounds nuw { double, double }, ptr %11, i32 0, i32 1
  store double %4, ptr %27, align 8
  store ptr %0, ptr %12, align 8, !tbaa !73
  store double %5, ptr %13, align 8, !tbaa !53
  store double %6, ptr %14, align 8, !tbaa !53
  store i32 %7, ptr %15, align 4, !tbaa !10
  call void @llvm.lifetime.start.p0(i64 16, ptr %16) #9
  call void @llvm.lifetime.start.p0(i64 16, ptr %17) #9
  call void @llvm.lifetime.start.p0(i64 64, ptr %18) #9
  %28 = getelementptr inbounds nuw %struct.pointf_s, ptr %11, i32 0, i32 1
  %29 = load double, ptr %28, align 8, !tbaa !58
  %30 = fneg double %29
  %31 = fmul double %30, 4.000000e-01
  %32 = getelementptr inbounds nuw %struct.pointf_s, ptr %17, i32 0, i32 0
  store double %31, ptr %32, align 8, !tbaa !57
  %33 = getelementptr inbounds nuw %struct.pointf_s, ptr %11, i32 0, i32 0
  %34 = load double, ptr %33, align 8, !tbaa !57
  %35 = fmul double %34, 4.000000e-01
  %36 = getelementptr inbounds nuw %struct.pointf_s, ptr %17, i32 0, i32 1
  store double %35, ptr %36, align 8, !tbaa !58
  %37 = getelementptr inbounds nuw %struct.pointf_s, ptr %10, i32 0, i32 0
  %38 = load double, ptr %37, align 8, !tbaa !57
  %39 = getelementptr inbounds nuw %struct.pointf_s, ptr %11, i32 0, i32 0
  %40 = load double, ptr %39, align 8, !tbaa !57
  %41 = call double @llvm.fmuladd.f64(double %40, double 8.000000e-01, double %38)
  %42 = getelementptr inbounds nuw %struct.pointf_s, ptr %16, i32 0, i32 0
  store double %41, ptr %42, align 8, !tbaa !57
  %43 = getelementptr inbounds nuw %struct.pointf_s, ptr %10, i32 0, i32 1
  %44 = load double, ptr %43, align 8, !tbaa !58
  %45 = getelementptr inbounds nuw %struct.pointf_s, ptr %11, i32 0, i32 1
  %46 = load double, ptr %45, align 8, !tbaa !58
  %47 = call double @llvm.fmuladd.f64(double %46, double 8.000000e-01, double %44)
  %48 = getelementptr inbounds nuw %struct.pointf_s, ptr %16, i32 0, i32 1
  store double %47, ptr %48, align 8, !tbaa !58
  %49 = getelementptr inbounds nuw %struct.pointf_s, ptr %10, i32 0, i32 0
  %50 = load double, ptr %49, align 8, !tbaa !57
  %51 = getelementptr inbounds nuw %struct.pointf_s, ptr %11, i32 0, i32 0
  %52 = load double, ptr %51, align 8, !tbaa !57
  %53 = fadd double %50, %52
  %54 = getelementptr inbounds nuw %struct.pointf_s, ptr %9, i32 0, i32 0
  store double %53, ptr %54, align 8, !tbaa !57
  %55 = getelementptr inbounds nuw %struct.pointf_s, ptr %10, i32 0, i32 1
  %56 = load double, ptr %55, align 8, !tbaa !58
  %57 = getelementptr inbounds nuw %struct.pointf_s, ptr %11, i32 0, i32 1
  %58 = load double, ptr %57, align 8, !tbaa !58
  %59 = fadd double %56, %58
  %60 = getelementptr inbounds nuw %struct.pointf_s, ptr %9, i32 0, i32 1
  store double %59, ptr %60, align 8, !tbaa !58
  call void @llvm.lifetime.start.p0(i64 16, ptr %19) #9
  call void @llvm.memset.p0.i64(ptr align 8 %19, i8 0, i64 16, i1 false)
  %61 = getelementptr inbounds nuw %struct.pointf_s, ptr %11, i32 0, i32 0
  %62 = load double, ptr %61, align 8, !tbaa !57
  %63 = fcmp une double %62, 0.000000e+00
  br i1 %63, label %68, label %64

64:                                               ; preds = %8
  %65 = getelementptr inbounds nuw %struct.pointf_s, ptr %11, i32 0, i32 1
  %66 = load double, ptr %65, align 8, !tbaa !58
  %67 = fcmp une double %66, 0.000000e+00
  br i1 %67, label %68, label %103

68:                                               ; preds = %64, %8
  call void @llvm.lifetime.start.p0(i64 16, ptr %20) #9
  %69 = getelementptr inbounds nuw %struct.pointf_s, ptr %20, i32 0, i32 0
  %70 = getelementptr inbounds nuw %struct.pointf_s, ptr %11, i32 0, i32 0
  %71 = load double, ptr %70, align 8, !tbaa !57
  %72 = fneg double %71
  store double %72, ptr %69, align 8, !tbaa !57
  %73 = getelementptr inbounds nuw %struct.pointf_s, ptr %20, i32 0, i32 1
  %74 = getelementptr inbounds nuw %struct.pointf_s, ptr %11, i32 0, i32 1
  %75 = load double, ptr %74, align 8, !tbaa !58
  %76 = fneg double %75
  store double %76, ptr %73, align 8, !tbaa !58
  call void @llvm.lifetime.start.p0(i64 8, ptr %21) #9
  %77 = getelementptr inbounds nuw %struct.pointf_s, ptr %20, i32 0, i32 0
  %78 = load double, ptr %77, align 8, !tbaa !57
  %79 = getelementptr inbounds nuw %struct.pointf_s, ptr %20, i32 0, i32 0
  %80 = load double, ptr %79, align 8, !tbaa !57
  %81 = getelementptr inbounds nuw %struct.pointf_s, ptr %20, i32 0, i32 1
  %82 = load double, ptr %81, align 8, !tbaa !58
  %83 = call double @hypot(double noundef %80, double noundef %82) #9, !tbaa !10
  %84 = fdiv double %78, %83
  store double %84, ptr %21, align 8, !tbaa !53
  call void @llvm.lifetime.start.p0(i64 8, ptr %22) #9
  %85 = getelementptr inbounds nuw %struct.pointf_s, ptr %20, i32 0, i32 1
  %86 = load double, ptr %85, align 8, !tbaa !58
  %87 = getelementptr inbounds nuw %struct.pointf_s, ptr %20, i32 0, i32 0
  %88 = load double, ptr %87, align 8, !tbaa !57
  %89 = getelementptr inbounds nuw %struct.pointf_s, ptr %20, i32 0, i32 1
  %90 = load double, ptr %89, align 8, !tbaa !58
  %91 = call double @hypot(double noundef %88, double noundef %90) #9, !tbaa !10
  %92 = fdiv double %86, %91
  store double %92, ptr %22, align 8, !tbaa !53
  %93 = getelementptr inbounds nuw %struct.pointf_s, ptr %23, i32 0, i32 0
  %94 = load double, ptr %14, align 8, !tbaa !53
  %95 = fdiv double %94, 2.000000e+00
  %96 = load double, ptr %21, align 8, !tbaa !53
  %97 = fmul double %95, %96
  store double %97, ptr %93, align 8, !tbaa !57
  %98 = getelementptr inbounds nuw %struct.pointf_s, ptr %23, i32 0, i32 1
  %99 = load double, ptr %14, align 8, !tbaa !53
  %100 = fdiv double %99, 2.000000e+00
  %101 = load double, ptr %22, align 8, !tbaa !53
  %102 = fmul double %100, %101
  store double %102, ptr %98, align 8, !tbaa !58
  call void @llvm.memcpy.p0.p0.i64(ptr align 8 %19, ptr align 8 %23, i64 16, i1 false), !tbaa.struct !56
  call void @llvm.lifetime.end.p0(i64 8, ptr %22) #9
  call void @llvm.lifetime.end.p0(i64 8, ptr %21) #9
  call void @llvm.lifetime.end.p0(i64 16, ptr %20) #9
  br label %103

103:                                              ; preds = %68, %64
  %104 = getelementptr inbounds nuw %struct.pointf_s, ptr %19, i32 0, i32 0
  %105 = load double, ptr %104, align 8, !tbaa !57
  %106 = getelementptr inbounds nuw %struct.pointf_s, ptr %10, i32 0, i32 0
  %107 = load double, ptr %106, align 8, !tbaa !57
  %108 = fsub double %107, %105
  store double %108, ptr %106, align 8, !tbaa !57
  %109 = getelementptr inbounds nuw %struct.pointf_s, ptr %19, i32 0, i32 1
  %110 = load double, ptr %109, align 8, !tbaa !58
  %111 = getelementptr inbounds nuw %struct.pointf_s, ptr %10, i32 0, i32 1
  %112 = load double, ptr %111, align 8, !tbaa !58
  %113 = fsub double %112, %110
  store double %113, ptr %111, align 8, !tbaa !58
  %114 = getelementptr inbounds nuw %struct.pointf_s, ptr %19, i32 0, i32 0
  %115 = load double, ptr %114, align 8, !tbaa !57
  %116 = getelementptr inbounds nuw %struct.pointf_s, ptr %16, i32 0, i32 0
  %117 = load double, ptr %116, align 8, !tbaa !57
  %118 = fsub double %117, %115
  store double %118, ptr %116, align 8, !tbaa !57
  %119 = getelementptr inbounds nuw %struct.pointf_s, ptr %19, i32 0, i32 1
  %120 = load double, ptr %119, align 8, !tbaa !58
  %121 = getelementptr inbounds nuw %struct.pointf_s, ptr %16, i32 0, i32 1
  %122 = load double, ptr %121, align 8, !tbaa !58
  %123 = fsub double %122, %120
  store double %123, ptr %121, align 8, !tbaa !58
  %124 = getelementptr inbounds nuw %struct.pointf_s, ptr %19, i32 0, i32 0
  %125 = load double, ptr %124, align 8, !tbaa !57
  %126 = getelementptr inbounds nuw %struct.pointf_s, ptr %9, i32 0, i32 0
  %127 = load double, ptr %126, align 8, !tbaa !57
  %128 = fsub double %127, %125
  store double %128, ptr %126, align 8, !tbaa !57
  %129 = getelementptr inbounds nuw %struct.pointf_s, ptr %19, i32 0, i32 1
  %130 = load double, ptr %129, align 8, !tbaa !58
  %131 = getelementptr inbounds nuw %struct.pointf_s, ptr %9, i32 0, i32 1
  %132 = load double, ptr %131, align 8, !tbaa !58
  %133 = fsub double %132, %130
  store double %133, ptr %131, align 8, !tbaa !58
  %134 = getelementptr inbounds nuw %struct.pointf_s, ptr %10, i32 0, i32 0
  %135 = load double, ptr %134, align 8, !tbaa !57
  %136 = getelementptr inbounds nuw %struct.pointf_s, ptr %17, i32 0, i32 0
  %137 = load double, ptr %136, align 8, !tbaa !57
  %138 = fadd double %135, %137
  %139 = getelementptr inbounds [4 x %struct.pointf_s], ptr %18, i64 0, i64 0
  %140 = getelementptr inbounds nuw %struct.pointf_s, ptr %139, i32 0, i32 0
  store double %138, ptr %140, align 16, !tbaa !57
  %141 = getelementptr inbounds nuw %struct.pointf_s, ptr %10, i32 0, i32 1
  %142 = load double, ptr %141, align 8, !tbaa !58
  %143 = getelementptr inbounds nuw %struct.pointf_s, ptr %17, i32 0, i32 1
  %144 = load double, ptr %143, align 8, !tbaa !58
  %145 = fadd double %142, %144
  %146 = getelementptr inbounds [4 x %struct.pointf_s], ptr %18, i64 0, i64 0
  %147 = getelementptr inbounds nuw %struct.pointf_s, ptr %146, i32 0, i32 1
  store double %145, ptr %147, align 8, !tbaa !58
  %148 = getelementptr inbounds nuw %struct.pointf_s, ptr %10, i32 0, i32 0
  %149 = load double, ptr %148, align 8, !tbaa !57
  %150 = getelementptr inbounds nuw %struct.pointf_s, ptr %17, i32 0, i32 0
  %151 = load double, ptr %150, align 8, !tbaa !57
  %152 = fsub double %149, %151
  %153 = getelementptr inbounds [4 x %struct.pointf_s], ptr %18, i64 0, i64 1
  %154 = getelementptr inbounds nuw %struct.pointf_s, ptr %153, i32 0, i32 0
  store double %152, ptr %154, align 16, !tbaa !57
  %155 = getelementptr inbounds nuw %struct.pointf_s, ptr %10, i32 0, i32 1
  %156 = load double, ptr %155, align 8, !tbaa !58
  %157 = getelementptr inbounds nuw %struct.pointf_s, ptr %17, i32 0, i32 1
  %158 = load double, ptr %157, align 8, !tbaa !58
  %159 = fsub double %156, %158
  %160 = getelementptr inbounds [4 x %struct.pointf_s], ptr %18, i64 0, i64 1
  %161 = getelementptr inbounds nuw %struct.pointf_s, ptr %160, i32 0, i32 1
  store double %159, ptr %161, align 8, !tbaa !58
  %162 = getelementptr inbounds nuw %struct.pointf_s, ptr %16, i32 0, i32 0
  %163 = load double, ptr %162, align 8, !tbaa !57
  %164 = getelementptr inbounds nuw %struct.pointf_s, ptr %17, i32 0, i32 0
  %165 = load double, ptr %164, align 8, !tbaa !57
  %166 = fsub double %163, %165
  %167 = getelementptr inbounds [4 x %struct.pointf_s], ptr %18, i64 0, i64 2
  %168 = getelementptr inbounds nuw %struct.pointf_s, ptr %167, i32 0, i32 0
  store double %166, ptr %168, align 16, !tbaa !57
  %169 = getelementptr inbounds nuw %struct.pointf_s, ptr %16, i32 0, i32 1
  %170 = load double, ptr %169, align 8, !tbaa !58
  %171 = getelementptr inbounds nuw %struct.pointf_s, ptr %17, i32 0, i32 1
  %172 = load double, ptr %171, align 8, !tbaa !58
  %173 = fsub double %170, %172
  %174 = getelementptr inbounds [4 x %struct.pointf_s], ptr %18, i64 0, i64 2
  %175 = getelementptr inbounds nuw %struct.pointf_s, ptr %174, i32 0, i32 1
  store double %173, ptr %175, align 8, !tbaa !58
  %176 = getelementptr inbounds nuw %struct.pointf_s, ptr %16, i32 0, i32 0
  %177 = load double, ptr %176, align 8, !tbaa !57
  %178 = getelementptr inbounds nuw %struct.pointf_s, ptr %17, i32 0, i32 0
  %179 = load double, ptr %178, align 8, !tbaa !57
  %180 = fadd double %177, %179
  %181 = getelementptr inbounds [4 x %struct.pointf_s], ptr %18, i64 0, i64 3
  %182 = getelementptr inbounds nuw %struct.pointf_s, ptr %181, i32 0, i32 0
  store double %180, ptr %182, align 16, !tbaa !57
  %183 = getelementptr inbounds nuw %struct.pointf_s, ptr %16, i32 0, i32 1
  %184 = load double, ptr %183, align 8, !tbaa !58
  %185 = getelementptr inbounds nuw %struct.pointf_s, ptr %17, i32 0, i32 1
  %186 = load double, ptr %185, align 8, !tbaa !58
  %187 = fadd double %184, %186
  %188 = getelementptr inbounds [4 x %struct.pointf_s], ptr %18, i64 0, i64 3
  %189 = getelementptr inbounds nuw %struct.pointf_s, ptr %188, i32 0, i32 1
  store double %187, ptr %189, align 8, !tbaa !58
  %190 = load i32, ptr %15, align 4, !tbaa !10
  %191 = and i32 %190, 64
  %192 = icmp ne i32 %191, 0
  br i1 %192, label %193, label %196

193:                                              ; preds = %103
  %194 = getelementptr inbounds [4 x %struct.pointf_s], ptr %18, i64 0, i64 0
  call void @llvm.memcpy.p0.p0.i64(ptr align 16 %194, ptr align 8 %10, i64 16, i1 false), !tbaa.struct !56
  %195 = getelementptr inbounds [4 x %struct.pointf_s], ptr %18, i64 0, i64 3
  call void @llvm.memcpy.p0.p0.i64(ptr align 16 %195, ptr align 8 %16, i64 16, i1 false), !tbaa.struct !56
  br label %204

196:                                              ; preds = %103
  %197 = load i32, ptr %15, align 4, !tbaa !10
  %198 = and i32 %197, 128
  %199 = icmp ne i32 %198, 0
  br i1 %199, label %200, label %203

200:                                              ; preds = %196
  %201 = getelementptr inbounds [4 x %struct.pointf_s], ptr %18, i64 0, i64 1
  call void @llvm.memcpy.p0.p0.i64(ptr align 16 %201, ptr align 8 %10, i64 16, i1 false), !tbaa.struct !56
  %202 = getelementptr inbounds [4 x %struct.pointf_s], ptr %18, i64 0, i64 2
  call void @llvm.memcpy.p0.p0.i64(ptr align 16 %202, ptr align 8 %16, i64 16, i1 false), !tbaa.struct !56
  br label %203

203:                                              ; preds = %200, %196
  br label %204

204:                                              ; preds = %203, %193
  %205 = load ptr, ptr %12, align 8, !tbaa !73
  %206 = getelementptr inbounds [4 x %struct.pointf_s], ptr %18, i64 0, i64 0
  %207 = load i32, ptr %15, align 4, !tbaa !10
  %208 = and i32 %207, 16
  %209 = icmp ne i32 %208, 0
  %210 = xor i1 %209, true
  %211 = zext i1 %210 to i32
  call void @gvrender_polygon(ptr noundef %205, ptr noundef %206, i64 noundef 4, i32 noundef %211)
  %212 = getelementptr inbounds [4 x %struct.pointf_s], ptr %18, i64 0, i64 0
  call void @llvm.memcpy.p0.p0.i64(ptr align 16 %212, ptr align 8 %16, i64 16, i1 false), !tbaa.struct !56
  %213 = getelementptr inbounds [4 x %struct.pointf_s], ptr %18, i64 0, i64 1
  call void @llvm.memcpy.p0.p0.i64(ptr align 16 %213, ptr align 8 %9, i64 16, i1 false), !tbaa.struct !56
  %214 = load ptr, ptr %12, align 8, !tbaa !73
  %215 = getelementptr inbounds [4 x %struct.pointf_s], ptr %18, i64 0, i64 0
  call void @gvrender_polyline(ptr noundef %214, ptr noundef %215, i64 noundef 2)
  call void @llvm.lifetime.end.p0(i64 16, ptr %19) #9
  call void @llvm.lifetime.end.p0(i64 64, ptr %18) #9
  call void @llvm.lifetime.end.p0(i64 16, ptr %17) #9
  call void @llvm.lifetime.end.p0(i64 16, ptr %16) #9
  %216 = load { double, double }, ptr %9, align 8
  ret { double, double } %216
}