; Function Attrs: nounwind uwtable
define internal { double, double } @arrow_type_box(ptr noundef %0, double %1, double %2, double %3, double %4, double %5, double noundef %6, i32 noundef %7) #0 {
  %9 = alloca [4 x %struct.pointf_s], align 16
  call void @llvm.lifetime.start.p0(i64 64, ptr nonnull %9) #12
  %10 = fmul double %4, -4.000000e-01
  %11 = fmul double %3, 4.000000e-01
  %12 = tail call double @llvm.fmuladd.f64(double %3, double 8.000000e-01, double %1)
  %13 = tail call double @llvm.fmuladd.f64(double %4, double 8.000000e-01, double %2)
  %14 = fcmp une double %3, 0.000000e+00
  %15 = fcmp une double %4, 0.000000e+00
  %or.cond = select i1 %14, i1 true, i1 %15
  br i1 %or.cond, label %16, label %26

16:                                               ; preds = %8
  %17 = fneg double %4
  %18 = fneg double %3
  %19 = tail call double @hypot(double noundef %18, double noundef %17) #12, !tbaa !3
  %20 = fdiv double %18, %19
  %21 = tail call double @hypot(double noundef %18, double noundef %17) #12, !tbaa !3
  %22 = fdiv double %17, %21
  %23 = fmul double %6, 5.000000e-01
  %24 = fmul double %23, %20
  %25 = fmul double %23, %22
  br label %26

26:                                               ; preds = %8, %16
  %.sroa.09.0 = phi double [ %24, %16 ], [ 0.000000e+00, %8 ]
  %.sroa.7.0 = phi double [ %25, %16 ], [ 0.000000e+00, %8 ]
  %27 = fsub double %1, %.sroa.09.0
  %28 = fsub double %2, %.sroa.7.0
  %29 = fsub double %12, %.sroa.09.0
  %30 = fsub double %13, %.sroa.7.0
  %31 = fadd double %10, %27
  store double %31, ptr %9, align 16, !tbaa !59
  %32 = fadd double %11, %28
  %33 = getelementptr inbounds nuw i8, ptr %9, i64 8
  store double %32, ptr %33, align 8, !tbaa !60
  %34 = fsub double %27, %10
  %35 = getelementptr inbounds nuw i8, ptr %9, i64 16
  store double %34, ptr %35, align 16, !tbaa !59
  %36 = fsub double %28, %11
  %37 = getelementptr inbounds nuw i8, ptr %9, i64 24
  store double %36, ptr %37, align 8, !tbaa !60
  %38 = fsub double %29, %10
  %39 = getelementptr inbounds nuw i8, ptr %9, i64 32
  store double %38, ptr %39, align 16, !tbaa !59
  %40 = fsub double %30, %11
  %41 = getelementptr inbounds nuw i8, ptr %9, i64 40
  store double %40, ptr %41, align 8, !tbaa !60
  %42 = fadd double %10, %29
  %43 = getelementptr inbounds nuw i8, ptr %9, i64 48
  store double %42, ptr %43, align 16, !tbaa !59
  %44 = fadd double %11, %30
  %45 = getelementptr inbounds nuw i8, ptr %9, i64 56
  store double %44, ptr %45, align 8, !tbaa !60
  %46 = and i32 %7, 64
  %.not = icmp eq i32 %46, 0
  br i1 %.not, label %48, label %47

47:                                               ; preds = %26
  store double %27, ptr %9, align 16, !tbaa !55
  store double %28, ptr %33, align 8, !tbaa !55
  store double %29, ptr %43, align 16, !tbaa !55
  store double %30, ptr %45, align 8, !tbaa !55
  br label %51

48:                                               ; preds = %26
  %49 = and i32 %7, 128
  %.not62 = icmp eq i32 %49, 0
  br i1 %.not62, label %51, label %50

50:                                               ; preds = %48
  store double %27, ptr %35, align 16, !tbaa !55
  store double %28, ptr %37, align 8, !tbaa !55
  store double %29, ptr %39, align 16, !tbaa !55
  store double %30, ptr %41, align 8, !tbaa !55
  br label %51

51:                                               ; preds = %48, %50, %47
  %52 = fadd double %2, %4
  %53 = fsub double %52, %.sroa.7.0
  %54 = fadd double %1, %3
  %55 = fsub double %54, %.sroa.09.0
  %56 = lshr i32 %7, 4
  %.lobit = and i32 %56, 1
  %57 = xor i32 %.lobit, 1
  call void @gvrender_polygon(ptr noundef %0, ptr noundef nonnull %9, i64 noundef 4, i32 noundef %57) #12
  store double %29, ptr %9, align 16, !tbaa !55
  store double %30, ptr %33, align 8, !tbaa !55
  store double %55, ptr %35, align 16, !tbaa !55
  store double %53, ptr %37, align 8, !tbaa !55
  call void @gvrender_polyline(ptr noundef %0, ptr noundef nonnull %9, i64 noundef 2) #12
  call void @llvm.lifetime.end.p0(i64 64, ptr nonnull %9) #12
  %.fca.0.insert = insertvalue { double, double } poison, double %55, 0
  %.fca.1.insert = insertvalue { double, double } %.fca.0.insert, double %53, 1
  ret { double, double } %.fca.1.insert
}